target datalayout = "e-m:e-p270:32:32-p271:32:32-p272:64:64-i64:64-i128:128-f80:128-n8:16:32:64-S128"
target triple = "x86_64-pc-linux-gnu"

@.str = private unnamed_addr constant [26 x i8] c"Parameter '%s' is invalid\00", align 1
@.str.1 = private unnamed_addr constant [5 x i8] c"path\00", align 1

; Function Attrs: nounwind uwtable
define hidden zeroext i1 @SDL_CreateDirectory_REAL(ptr noundef %0) #0 {
  %2 = alloca i1, align 1
  %3 = alloca ptr, align 8
  %4 = alloca i8, align 1
  %5 = alloca ptr, align 8
  %6 = alloca i32, align 4
  %7 = alloca i64, align 8
  %8 = alloca ptr, align 8
  %9 = alloca i8, align 1
  %10 = alloca i8, align 1
  store ptr %0, ptr %3, align 8
  %11 = load ptr, ptr %3, align 8
  %12 = icmp ne ptr %11, null
  br i1 %12, label %15, label %13

13:                                               ; preds = %1
  %14 = call zeroext i1 (ptr, ...) @SDL_SetError_REAL(ptr noundef @.str, ptr noundef @.str.1)
  store i1 %14, ptr %2, align 1
  br label %112

15:                                               ; preds = %1
  call void @llvm.lifetime.start.p0(i64 1, ptr %4) #5
  %16 = load ptr, ptr %3, align 8
  %17 = call zeroext i1 @SDL_SYS_CreateDirectory(ptr noundef %16)
  %18 = zext i1 %17 to i8
  store i8 %18, ptr %4, align 1
  %19 = load i8, ptr %4, align 1, !range !3, !noundef !4
  %20 = trunc i8 %19 to i1
  br i1 %20, label %108, label %21

21:                                               ; preds = %15
  %22 = load ptr, ptr %3, align 8
  %23 = load i8, ptr %22, align 1
  %24 = sext i8 %23 to i32
  %25 = icmp ne i32 %24, 0
  br i1 %25, label %26, label %108

26:                                               ; preds = %21
  call void @llvm.lifetime.start.p0(i64 8, ptr %5) #5
  %27 = load ptr, ptr %3, align 8
  %28 = call noalias ptr @SDL_strdup_REAL(ptr noundef %27)
  store ptr %28, ptr %5, align 8
  %29 = load ptr, ptr %5, align 8
  %30 = icmp ne ptr %29, null
  br i1 %30, label %32, label %31

31:                                               ; preds = %26
  store i1 false, ptr %2, align 1
  store i32 1, ptr %6, align 4
  br label %105

32:                                               ; preds = %26
  call void @llvm.lifetime.start.p0(i64 8, ptr %7) #5
  %33 = load ptr, ptr %5, align 8
  %34 = call i64 @SDL_strlen_REAL(ptr noundef %33)
  store i64 %34, ptr %7, align 8
  %35 = load ptr, ptr %5, align 8
  %36 = load i64, ptr %7, align 8
  %37 = sub i64 %36, 1
  %38 = getelementptr inbounds nuw i8, ptr %35, i64 %37
  %39 = load i8, ptr %38, align 1
  %40 = sext i8 %39 to i32
  %41 = icmp eq i32 %40, 47
  br i1 %41, label %42, label %50

42:                                               ; preds = %32
  %43 = load ptr, ptr %5, align 8
  %44 = load i64, ptr %7, align 8
  %45 = sub i64 %44, 1
  %46 = getelementptr inbounds nuw i8, ptr %43, i64 %45
  store i8 0, ptr %46, align 1
  %47 = load ptr, ptr %5, align 8
  %48 = call zeroext i1 @SDL_SYS_CreateDirectory(ptr noundef %47)
  %49 = zext i1 %48 to i8
  store i8 %49, ptr %4, align 1
  br label %50

50:                                               ; preds = %42, %32
  %51 = load i8, ptr %4, align 1, !range !3, !noundef !4
  %52 = trunc i8 %51 to i1
  br i1 %52, label %103, label %53

53:                                               ; preds = %50
  call void @llvm.lifetime.start.p0(i64 8, ptr %8) #5
  %54 = load ptr, ptr %5, align 8
  store ptr %54, ptr %8, align 8
  br label %55

55:                                               ; preds = %95, %53
  %56 = load ptr, ptr %8, align 8
  %57 = load i8, ptr %56, align 1
  %58 = icmp ne i8 %57, 0
  br i1 %58, label %60, label %59

59:                                               ; preds = %55
  store i32 2, ptr %6, align 4
  br label %98

60:                                               ; preds = %55
  call void @llvm.lifetime.start.p0(i64 1, ptr %9) #5
  %61 = load ptr, ptr %8, align 8
  %62 = load i8, ptr %61, align 1
  store i8 %62, ptr %9, align 1
  call void @llvm.lifetime.start.p0(i64 1, ptr %10) #5
  %63 = load i8, ptr %9, align 1
  %64 = sext i8 %63 to i32
  %65 = icmp eq i32 %64, 47
  %66 = zext i1 %65 to i8
  store i8 %66, ptr %10, align 1
  %67 = load i8, ptr %10, align 1, !range !3, !noundef !4
  %68 = trunc i8 %67 to i1
  br i1 %68, label %69, label %77

69:                                               ; preds = %60
  %70 = load ptr, ptr %8, align 8
  %71 = load ptr, ptr %5, align 8
  %72 = ptrtoint ptr %70 to i64
  %73 = ptrtoint ptr %71 to i64
  %74 = sub i64 %72, %73
  %75 = icmp eq i64 %74, 0
  br i1 %75, label %76, label %77

76:                                               ; preds = %69
  store i32 4, ptr %6, align 4
  br label %92

77:                                               ; preds = %69, %60
  %78 = load i8, ptr %10, align 1, !range !3, !noundef !4
  %79 = trunc i8 %78 to i1
  br i1 %79, label %80, label %91

80:                                               ; preds = %77
  %81 = load ptr, ptr %8, align 8
  store i8 0, ptr %81, align 1
  %82 = load ptr, ptr %5, align 8
  %83 = call zeroext i1 @SDL_SYS_CreateDirectory(ptr noundef %82)
  %84 = zext i1 %83 to i8
  store i8 %84, ptr %4, align 1
  %85 = load i8, ptr %4, align 1, !range !3, !noundef !4
  %86 = trunc i8 %85 to i1
  br i1 %86, label %88, label %87

87:                                               ; preds = %80
  store i32 2, ptr %6, align 4
  br label %92

88:                                               ; preds = %80
  %89 = load i8, ptr %9, align 1
  %90 = load ptr, ptr %8, align 8
  store i8 %89, ptr %90, align 1
  br label %91

91:                                               ; preds = %88, %77
  store i32 0, ptr %6, align 4
  br label %92

92:                                               ; preds = %91, %87, %76
  call void @llvm.lifetime.end.p0(i64 1, ptr %10) #5
  call void @llvm.lifetime.end.p0(i64 1, ptr %9) #5
  %93 = load i32, ptr %6, align 4
  switch i32 %93, label %98 [
    i32 0, label %94
    i32 4, label %95
  ]

94:                                               ; preds = %92
  br label %95

95:                                               ; preds = %94, %92
  %96 = load ptr, ptr %8, align 8
  %97 = getelementptr inbounds nuw i8, ptr %96, i32 1
  store ptr %97, ptr %8, align 8
  br label %55, !llvm.loop !5

98:                                               ; preds = %92, %59
  call void @llvm.lifetime.end.p0(i64 8, ptr %8) #5
  br label %99

99:                                               ; preds = %98
  %100 = load ptr, ptr %5, align 8
  %101 = call zeroext i1 @SDL_SYS_CreateDirectory(ptr noundef %100)
  %102 = zext i1 %101 to i8
  store i8 %102, ptr %4, align 1
  br label %103

103:                                              ; preds = %99, %50
  %104 = load ptr, ptr %5, align 8
  call void @SDL_free_REAL(ptr noundef %104)
  call void @llvm.lifetime.end.p0(i64 8, ptr %7) #5
  store i32 0, ptr %6, align 4
  br label %105

105:                                              ; preds = %103, %31
  call void @llvm.lifetime.end.p0(i64 8, ptr %5) #5
  %106 = load i32, ptr %6, align 4
  switch i32 %106, label %111 [
    i32 0, label %107
  ]

107:                                              ; preds = %105
  br label %108

108:                                              ; preds = %107, %21, %15
  %109 = load i8, ptr %4, align 1, !range !3, !noundef !4
  %110 = trunc i8 %109 to i1
  store i1 %110, ptr %2, align 1
  store i32 1, ptr %6, align 4
  br label %111

111:                                              ; preds = %108, %105
  call void @llvm.lifetime.end.p0(i64 1, ptr %4) #5
  br label %112

112:                                              ; preds = %111, %13
  %113 = load i1, ptr %2, align 1
  ret i1 %113
}